Certificate:
    Data:
        Version: 3 (0x2)
        Serial Number: 4096 (0x1000)
    Signature Algorithm: sha256WithRSAEncryption
        Issuer: C=ES, ST=Jaen, L=Jaen, O=Univ_Jaen, OU=Seguridad Informatica, CN=Protocolos de Seguridad/emailAddress=protocolos@ujaen.es
        Validity
            Not Before: Nov  1 09:21:49 2018 GMT
            Not After : Nov  1 09:21:49 2019 GMT
        Subject: C=ES, ST=Jaen, L=Jaen, O=Univ_Jaen, OU=Seguridad Informatica, CN=Protocolos/emailAddress=protocolos@ujaen.es
        Subject Public Key Info:
            Public Key Algorithm: rsaEncryption
                Public-Key: (2048 bit)
                Modulus:
                    00:d2:ff:f1:39:d1:56:04:53:58:f1:3c:ea:e5:f6:
                    9a:12:ef:5e:c7:5e:7b:af:c2:85:76:75:e2:08:e7:
                    d7:bf:cb:f1:4f:99:0c:8f:76:6f:38:4a:47:4a:30:
                    ed:6a:a8:ff:f1:35:f3:82:ae:a7:31:56:2a:c3:49:
                    ab:84:9f:22:1e:98:5c:3f:f0:37:6f:63:71:c8:f1:
                    20:f3:ca:a8:dd:b5:1a:91:71:2a:2f:51:65:96:ee:
                    f4:b7:bc:91:a4:f1:4f:60:be:40:e4:ef:e5:94:7c:
                    8f:16:99:a5:a8:78:81:ae:22:9d:69:69:fe:c0:67:
                    b8:e4:72:4e:79:95:3d:64:3f:f6:29:0d:6d:ac:ca:
                    02:83:67:e5:51:47:5b:f3:4c:29:00:2b:43:8d:df:
                    ac:04:f3:cf:ad:91:84:35:c8:d3:ad:1e:c6:5c:6e:
                    bd:de:db:6b:cf:70:4f:62:80:dc:9c:15:c0:f9:4c:
                    bd:74:a0:90:8a:1e:63:ae:31:a3:b4:5e:58:fc:c6:
                    1d:03:06:27:6f:5a:3e:ff:28:74:35:29:cf:28:34:
                    f7:ed:e6:8c:25:90:de:c0:e5:66:ea:59:6e:e0:00:
                    01:a3:8a:33:0a:0f:a0:48:f5:4c:a2:20:36:89:0e:
                    d4:ee:2e:4d:30:e9:1d:c1:ba:9c:4b:d4:e5:15:a1:
                    ea:7b
                Exponent: 65537 (0x10001)
        X509v3 extensions:
            X509v3 Basic Constraints: 
                CA:FALSE
            Netscape Comment: 
                OpenSSL Generated Certificate
            X509v3 Subject Key Identifier: 
                9B:F0:42:64:21:29:2B:7A:15:15:1F:1A:38:10:94:0E:6C:4D:C4:41
            X509v3 Authority Key Identifier: 
                keyid:88:43:29:B7:4C:43:11:3A:8D:72:A1:06:92:A0:53:BA:87:88:07:6E

    Signature Algorithm: sha256WithRSAEncryption
         7c:05:7f:4b:8e:b6:f5:c5:e1:36:b0:14:3e:97:21:d4:df:7a:
         91:aa:c0:11:18:67:03:a0:b9:b5:fb:26:74:13:a5:35:5a:16:
         41:d2:66:6d:2a:b0:e9:98:0b:e4:59:7c:3b:92:6e:f8:2e:9f:
         76:47:ab:36:09:7e:7e:f5:4e:c2:d9:3f:0b:9b:3f:a2:f5:4a:
         df:18:62:1b:e2:34:08:11:75:10:87:ee:3c:22:fd:e9:3e:19:
         27:07:be:1e:ea:5a:50:a6:91:b6:e9:4c:9e:58:00:fe:b4:1b:
         14:0f:04:d7:5a:09:92:91:6c:6a:b4:ca:11:c0:51:5b:35:07:
         a1:d5:39:3f:18:86:4a:6b:58:3f:6e:b8:71:19:94:da:9c:51:
         0c:eb:fc:64:60:78:a4:01:22:a2:09:95:cf:8a:a7:af:11:9b:
         80:e3:9b:41:80:9a:ba:04:17:e3:c6:2c:14:17:41:51:18:05:
         d0:41:24:a2:3a:a4:e1:94:86:d7:22:c9:93:1e:f1:a7:fe:5b:
         c0:2d:62:c1:c3:05:50:30:0c:85:07:b1:c5:e3:c5:fc:07:4b:
         c4:e2:b5:e7:ed:71:c0:5a:1c:fd:26:7a:a8:c1:5d:62:8c:bc:
         b6:37:15:62:80:63:5d:fd:dc:f5:3b:cc:97:3d:50:43:1e:29:
         e1:cb:31:6f
-----BEGIN CERTIFICATE-----
MIIENjCCAx6gAwIBAgICEAAwDQYJKoZIhvcNAQELBQAwgaUxCzAJBgNVBAYTAkVT
MQ0wCwYDVQQIDARKYWVuMQ0wCwYDVQQHDARKYWVuMRIwEAYDVQQKDAlVbml2X0ph
ZW4xHjAcBgNVBAsMFVNlZ3VyaWRhZCBJbmZvcm1hdGljYTEgMB4GA1UEAwwXUHJv
dG9jb2xvcyBkZSBTZWd1cmlkYWQxIjAgBgkqhkiG9w0BCQEWE3Byb3RvY29sb3NA
dWphZW4uZXMwHhcNMTgxMTAxMDkyMTQ5WhcNMTkxMTAxMDkyMTQ5WjCBmDELMAkG
A1UEBhMCRVMxDTALBgNVBAgMBEphZW4xDTALBgNVBAcMBEphZW4xEjAQBgNVBAoM
CVVuaXZfSmFlbjEeMBwGA1UECwwVU2VndXJpZGFkIEluZm9ybWF0aWNhMRMwEQYD
VQQDDApQcm90b2NvbG9zMSIwIAYJKoZIhvcNAQkBFhNwcm90b2NvbG9zQHVqYWVu
LmVzMIIBIjANBgkqhkiG9w0BAQEFAAOCAQ8AMIIBCgKCAQEA0v/xOdFWBFNY8Tzq
5faaEu9ex157r8KFdnXiCOfXv8vxT5kMj3ZvOEpHSjDtaqj/8TXzgq6nMVYqw0mr
hJ8iHphcP/A3b2NxyPEg88qo3bUakXEqL1Fllu70t7yRpPFPYL5A5O/llHyPFpml
qHiBriKdaWn+wGe45HJOeZU9ZD/2KQ1trMoCg2flUUdb80wpACtDjd+sBPPPrZGE
NcjTrR7GXG693ttrz3BPYoDcnBXA+Uy9dKCQih5jrjGjtF5Y/MYdAwYnb1o+/yh0
NSnPKDT37eaMJZDewOVm6llu4AABo4ozCg+gSPVMoiA2iQ7U7i5NMOkdwbqcS9Tl
FaHqewIDAQABo3sweTAJBgNVHRMEAjAAMCwGCWCGSAGG+EIBDQQfFh1PcGVuU1NM
IEdlbmVyYXRlZCBDZXJ0aWZpY2F0ZTAdBgNVHQ4EFgQUm/BCZCEpK3oVFR8aOBCU
DmxNxEEwHwYDVR0jBBgwFoAUiEMpt0xDETqNcqEGkqBTuoeIB24wDQYJKoZIhvcN
AQELBQADggEBAHwFf0uOtvXF4TawFD6XIdTfepGqwBEYZwOgubX7JnQTpTVaFkHS
Zm0qsOmYC+RZfDuSbvgun3ZHqzYJfn71TsLZPwubP6L1St8YYhviNAgRdRCH7jwi
/ek+GScHvh7qWlCmkbbpTJ5YAP60GxQPBNdaCZKRbGq0yhHAUVs1B6HVOT8Yhkpr
WD9uuHEZlNqcUQzr/GRgeKQBIqIJlc+Kp68Rm4Djm0GAmroEF+PGLBQXQVEYBdBB
JKI6pOGUhtciyZMe8af+W8AtYsHDBVAwDIUHscXjxfwHS8TiteftccBaHP0meqjB
XWKMvLY3FWKAY1393PU7zJc9UEMeKeHLMW8=
-----END CERTIFICATE-----
